; Function Attrs: nounwind uwtable
define ptr @l_Lean_Meta_Grind_lookahead___lambda__4(ptr noundef %0, ptr readnone captures(none) %1, ptr noundef %2, ptr noundef %3, ptr noundef %4, ptr noundef %5, ptr noundef %6, ptr noundef %7, ptr noundef %8, ptr noundef %9) local_unnamed_addr #0 {
  tail call void @lean_inc_heartbeat() #4
  %11 = tail call noalias ptr @mi_malloc_small(i64 noundef 32) #4
  %12 = icmp eq ptr %11, null
  br i1 %12, label %13, label %lean_alloc_closure.exit

13:                                               ; preds = %10
  tail call void @lean_internal_panic_out_of_memory() #5
  unreachable

lean_alloc_closure.exit:                          ; preds = %10
  %14 = getelementptr inbounds nuw i8, ptr %11, i64 4
  store i32 1, ptr %11, align 4, !tbaa !8
  store i32 -184549344, ptr %14, align 4
  %15 = getelementptr inbounds nuw i8, ptr %11, i64 8
  store ptr @l_Lean_Meta_Grind_lookahead___lambda__2, ptr %15, align 8, !tbaa !4
  %16 = getelementptr inbounds nuw i8, ptr %11, i64 16
  store i16 11, ptr %16, align 8, !tbaa !18
  %17 = getelementptr inbounds nuw i8, ptr %11, i64 18
  store i16 1, ptr %17, align 2, !tbaa !18
  %18 = getelementptr inbounds nuw i8, ptr %11, i64 24
  store ptr inttoptr (i64 1 to ptr), ptr %18, align 8, !tbaa !4
  %19 = load ptr, ptr @l___private_Lean_Meta_Tactic_Grind_Lookahead_0__Lean_Meta_Grind_tryLookahead___lambda__3___closed__1, align 8, !tbaa !4
  tail call void @lean_inc_heartbeat() #4
  %20 = tail call noalias ptr @mi_malloc_small(i64 noundef 40) #4
  %21 = icmp eq ptr %20, null
  br i1 %21, label %22, label %lean_alloc_closure.exit26

22:                                               ; preds = %lean_alloc_closure.exit
  tail call void @lean_internal_panic_out_of_memory() #5
  unreachable

lean_alloc_closure.exit26:                        ; preds = %lean_alloc_closure.exit
  %23 = getelementptr inbounds nuw i8, ptr %20, i64 4
  store i32 1, ptr %20, align 4, !tbaa !8
  store i32 -184549336, ptr %23, align 4
  %24 = getelementptr inbounds nuw i8, ptr %20, i64 8
  store ptr @l_ReaderT_bind___at___private_Lean_Meta_Tactic_Grind_Canon_0__Lean_Meta_Grind_Canon_isDefEqBounded___spec__1___rarg, ptr %24, align 8, !tbaa !4
  %25 = getelementptr inbounds nuw i8, ptr %20, i64 16
  store i16 11, ptr %25, align 8, !tbaa !18
  %26 = getelementptr inbounds nuw i8, ptr %20, i64 18
  store i16 2, ptr %26, align 2, !tbaa !18
  %27 = getelementptr inbounds nuw i8, ptr %20, i64 24
  store ptr %19, ptr %27, align 8, !tbaa !4
  %28 = getelementptr inbounds nuw i8, ptr %20, i64 32
  store ptr %11, ptr %28, align 8, !tbaa !4
  tail call void @lean_inc_heartbeat() #4
  %29 = tail call noalias ptr @mi_malloc_small(i64 noundef 40) #4
  %30 = icmp eq ptr %29, null
  br i1 %30, label %31, label %lean_alloc_closure.exit27

31:                                               ; preds = %lean_alloc_closure.exit26
  tail call void @lean_internal_panic_out_of_memory() #5
  unreachable

lean_alloc_closure.exit27:                        ; preds = %lean_alloc_closure.exit26
  %32 = getelementptr inbounds nuw i8, ptr %29, i64 4
  store i32 1, ptr %29, align 4, !tbaa !8
  store i32 -184549336, ptr %32, align 4
  %33 = getelementptr inbounds nuw i8, ptr %29, i64 8
  store ptr @l_Lean_Meta_Grind_GoalM_run___rarg, ptr %33, align 8, !tbaa !4
  %34 = getelementptr inbounds nuw i8, ptr %29, i64 16
  store i16 10, ptr %34, align 8, !tbaa !18
  %35 = getelementptr inbounds nuw i8, ptr %29, i64 18
  store i16 2, ptr %35, align 2, !tbaa !18
  %36 = getelementptr inbounds nuw i8, ptr %29, i64 24
  store ptr %0, ptr %36, align 8, !tbaa !4
  %37 = getelementptr inbounds nuw i8, ptr %29, i64 32
  store ptr %20, ptr %37, align 8, !tbaa !4
  tail call void @lean_inc_heartbeat() #4
  %38 = tail call noalias ptr @mi_malloc_small(i64 noundef 32) #4
  %39 = icmp eq ptr %38, null
  br i1 %39, label %40, label %lean_alloc_closure.exit28

40:                                               ; preds = %lean_alloc_closure.exit27
  tail call void @lean_internal_panic_out_of_memory() #5
  unreachable

lean_alloc_closure.exit28:                        ; preds = %lean_alloc_closure.exit27
  %41 = getelementptr inbounds nuw i8, ptr %38, i64 4
  store i32 1, ptr %38, align 4, !tbaa !8
  store i32 -184549344, ptr %41, align 4
  %42 = getelementptr inbounds nuw i8, ptr %38, i64 8
  store ptr @l_Lean_Meta_Grind_lookahead___lambda__3___boxed, ptr %42, align 8, !tbaa !4
  %43 = getelementptr inbounds nuw i8, ptr %38, i64 16
  store i16 10, ptr %43, align 8, !tbaa !18
  %44 = getelementptr inbounds nuw i8, ptr %38, i64 18
  store i16 1, ptr %44, align 2, !tbaa !18
  %45 = getelementptr inbounds nuw i8, ptr %38, i64 24
  store ptr inttoptr (i64 1 to ptr), ptr %45, align 8, !tbaa !4
  tail call void @lean_inc_heartbeat() #4
  %46 = tail call noalias ptr @mi_malloc_small(i64 noundef 40) #4
  %47 = icmp eq ptr %46, null
  br i1 %47, label %48, label %lean_alloc_closure.exit29

48:                                               ; preds = %lean_alloc_closure.exit28
  tail call void @lean_internal_panic_out_of_memory() #5
  unreachable

lean_alloc_closure.exit29:                        ; preds = %lean_alloc_closure.exit28
  %49 = getelementptr inbounds nuw i8, ptr %46, i64 4
  store i32 1, ptr %46, align 4, !tbaa !8
  store i32 -184549336, ptr %49, align 4
  %50 = getelementptr inbounds nuw i8, ptr %46, i64 8
  store ptr @l_ReaderT_bind___at_Lean_Meta_Grind_GoalM_run___spec__1___rarg, ptr %50, align 8, !tbaa !4
  %51 = getelementptr inbounds nuw i8, ptr %46, i64 16
  store i16 10, ptr %51, align 8, !tbaa !18
  %52 = getelementptr inbounds nuw i8, ptr %46, i64 18
  store i16 2, ptr %52, align 2, !tbaa !18
  %53 = getelementptr inbounds nuw i8, ptr %46, i64 24
  store ptr %29, ptr %53, align 8, !tbaa !4
  %54 = getelementptr inbounds nuw i8, ptr %46, i64 32
  store ptr %38, ptr %54, align 8, !tbaa !4
  %55 = tail call ptr @l___private_Lean_Meta_Tactic_Grind_Lookahead_0__Lean_Meta_Grind_withLookaheadConfig___rarg(ptr noundef nonnull %46, ptr noundef %2, ptr noundef %3, ptr noundef %4, ptr noundef %5, ptr noundef %6, ptr noundef %7, ptr noundef %8, ptr noundef %9)
  ret ptr %55
}